(dp0
S'OriginalConfig'
p1
ccopy_reg
_reconstructor
p2
(cWMCore.Configuration
Configuration
p3
c__builtin__
object
p4
Ntp5
Rp6
(dp7
S'Site'
p8
g2
(cWMCore.Configuration
ConfigSection
p9
g4
Ntp10
Rp11
(dp12
S'_internal_skipChecks'
p13
I00
sS'_internal_documentation'
p14
S''
p15
sS'_internal_settings'
p16
c__builtin__
set
p17
((lp18
S'storageSite'
p19
atp20
Rp21
sS'_internal_name'
p22
g8
sS'_internal_docstrings'
p23
(dp24
sS'_internal_children'
p25
g17
((lp26
tp27
Rp28
sg19
S'T2_CH_CERN'
p29
sS'_internal_parent_ref'
p30
NsbsS'_internal_sections'
p31
(lp32
S'General'
p33
aS'JobType'
p34
aS'Data'
p35
ag8
aS'User'
p36
aS'Debug'
p37
asg36
g2
(g9
g4
Ntp38
Rp39
(dp40
g13
I00
sg14
g15
sg16
g17
((lp41
tp42
Rp43
sg22
g36
sg23
(dp44
sg25
g17
((lp45
tp46
Rp47
sg30
Nsbsg37
g2
(g9
g4
Ntp48
Rp49
(dp50
g13
I00
sg14
g15
sg16
g17
((lp51
tp52
Rp53
sg22
g37
sg23
(dp54
sg25
g17
((lp55
tp56
Rp57
sg30
Nsbsg33
g2
(g9
g4
Ntp58
Rp59
(dp60
S'workArea'
p61
S'Tau3MuNano2017_2023Nov19'
p62
sg13
I00
sg14
g15
sg16
g17
((lp63
g61
aS'transferOutputs'
p64
aS'transferLogs'
p65
aS'requestName'
p66
atp67
Rp68
sg22
g33
sg23
(dp69
sg64
I01
sg25
g17
((lp70
tp71
Rp72
sg66
S'WnuTau3Mu_2017'
p73
sg30
Nsg65
I01
sbsg35
g2
(g9
g4
Ntp74
Rp75
(dp76
S'inputDataset'
p77
S'/WtoTauNu_Tauto3Mu_TuneCP5_13p6TeV_pythia8/Run3Summer22MiniAODv3-124X_mcRun3_2022_realistic_v12-v2/MINIAODSIM'
p78
sg13
I00
sS'splitting'
p79
S'FileBased'
p80
sS'unitsPerJob'
p81
I1
sg14
g15
sg16
g17
((lp82
g77
aS'publication'
p83
ag81
ag79
aS'inputDBS'
p84
aS'lumiMask'
p85
aS'outLFNDirBase'
p86
atp87
Rp88
sg22
g35
sg84
S'global'
p89
sg23
(dp90
sg25
g17
((lp91
tp92
Rp93
sg86
S'/store/group/phys_bphys/cbasile/Tau3MuNano2017_2023Nov19'
p94
sg30
Nsg85
g15
sg83
I00
sbsg34
g2
(g9
g4
Ntp95
Rp96
(dp97
S'outputFiles'
p98
(lp99
S'tau3muNANO_mc_2023Nov19.root'
p100
asg13
I00
sS'pyCfgParams'
p101
(lp102
S'isMC=True'
p103
aS'reportEvery=1000'
p104
aS'tag=2023Nov19'
p105
aS'globalTag=106X_mc2017_realistic_v10'
p106
asg14
g15
sg16
g17
((lp107
S'psetName'
p108
aS'pluginName'
p109
ag98
ag101
aS'allowUndistributedCMSSW'
p110
atp111
Rp112
sg22
g34
sg23
(dp113
sg109
S'Analysis'
p114
sg25
g17
((lp115
tp116
Rp117
sg110
I01
sg108
S'../test/run_nanoMuonTriplets_2017_cfg.py'
p118
sg30
NsbsbsS'voGroup'
p119
g15
sS'Server'
p120
S'cmsweb.cern.ch'
p121
sS'instance'
p122
S'prod'
p123
sS'RequestName'
p124
V231119_171933:cbasile_crab_WnuTau3Mu_2017
p125
sS'voRole'
p126
S'NULL'
p127
sS'Port'
p128
g15
s.